target datalayout = "e-m:e-p270:32:32-p271:32:32-p272:64:64-i64:64-i128:128-f80:128-n8:16:32:64-S128"
target triple = "x86_64-unknown-linux-gnu"

%struct.redisAsyncContext = type { %struct.redisContext, i32, ptr, ptr, ptr, %struct.anon.2, ptr, ptr, ptr, %struct.redisCallbackList, ptr, i64, %struct.anon.3, ptr }
%struct.redisContext = type { ptr, i32, [128 x i8], i32, i32, ptr, ptr, i32, ptr, ptr, %struct.anon.0, %struct.anon.1, ptr, i64, ptr, ptr, ptr, ptr }
%struct.anon.0 = type { ptr, ptr, i32 }
%struct.anon.1 = type { ptr }
%struct.anon.2 = type { ptr, ptr, ptr, ptr, ptr, ptr, ptr }
%struct.redisCallbackList = type { ptr, ptr }
%struct.anon.3 = type { %struct.redisCallbackList, ptr, ptr, i32 }

; Function Attrs: nounwind uwtable
define i32 @redisAsyncSetDisconnectCallback(ptr noundef %ac, ptr noundef %fn) #0 {
entry:
  %retval = alloca i32, align 4
  %ac.addr = alloca ptr, align 8
  %fn.addr = alloca ptr, align 8
  store ptr %ac, ptr %ac.addr, align 8
  store ptr %fn, ptr %fn.addr, align 8
  %0 = load ptr, ptr %ac.addr, align 8
  %onDisconnect = getelementptr inbounds %struct.redisAsyncContext, ptr %0, i32 0, i32 6
  %1 = load ptr, ptr %onDisconnect, align 8
  %cmp = icmp eq ptr %1, null
  br i1 %cmp, label %if.then, label %if.end

if.then:                                          ; preds = %entry
  %2 = load ptr, ptr %fn.addr, align 8
  %3 = load ptr, ptr %ac.addr, align 8
  %onDisconnect1 = getelementptr inbounds %struct.redisAsyncContext, ptr %3, i32 0, i32 6
  store ptr %2, ptr %onDisconnect1, align 8
  store i32 0, ptr %retval, align 4
  br label %return

if.end:                                           ; preds = %entry
  store i32 -1, ptr %retval, align 4
  br label %return

return:                                           ; preds = %if.end, %if.then
  %4 = load i32, ptr %retval, align 4
  ret i32 %4
}