; Function Attrs: mustprogress nofree norecurse nosync nounwind willreturn memory(argmem: readwrite) uwtable
define noundef i32 @redisAsyncSetDisconnectCallback(ptr nocapture noundef %ac, ptr noundef %fn) local_unnamed_addr #3 {
entry:
  %onDisconnect = getelementptr inbounds i8, ptr %ac, i64 360
  %0 = load ptr, ptr %onDisconnect, align 8
  %cmp = icmp eq ptr %0, null
  br i1 %cmp, label %if.then, label %return

if.then:                                          ; preds = %entry
  store ptr %fn, ptr %onDisconnect, align 8
  br label %return

return:                                           ; preds = %entry, %if.then
  %retval.0 = phi i32 [ 0, %if.then ], [ -1, %entry ]
  ret i32 %retval.0
}